target datalayout = "e-m:e-p270:32:32-p271:32:32-p272:64:64-i64:64-i128:128-f80:128-n8:16:32:64-S128"
target triple = "x86_64-pc-linux-gnu"

%struct.BEValue = type { i8, i32, ptr, ptr, ptr }
%struct.Expr_ = type { ptr, %union.SourceSpan, i16, %union.anon.29 }
%union.SourceSpan = type { i64 }
%union.anon.29 = type { %struct.ExprAnySwitch }
%struct.ExprAnySwitch = type { i8, %union.anon.31 }
%union.anon.31 = type { %struct.anon.32 }
%struct.anon.32 = type { ptr, %union.SourceSpan, ptr }
%struct.ExprCall = type { %union.anon.33, i32, i16, ptr, %union.anon.34 }
%union.anon.33 = type { i32 }
%union.anon.34 = type { ptr }
%struct.VHeader_ = type { i32, i32, [0 x i8] }

; Function Attrs: nounwind uwtable
define dso_local void @llvm_emit_simple_builtin(ptr noundef %0, ptr noundef %1, ptr noundef %2, i32 noundef %3) #0 {
  %5 = alloca i32, align 4
  %6 = alloca ptr, align 8
  %7 = alloca ptr, align 8
  %8 = alloca ptr, align 8
  %9 = alloca ptr, align 8
  %10 = alloca ptr, align 8
  %11 = alloca i32, align 4
  %12 = alloca %struct.BEValue, align 8
  %13 = alloca i32, align 4
  %14 = alloca ptr, align 8
  %15 = alloca ptr, align 8
  %16 = alloca ptr, align 8
  %17 = alloca i32, align 4
  %18 = alloca ptr, align 8
  %19 = alloca i32, align 4
  %20 = alloca [4 x ptr], align 16
  %21 = alloca ptr, align 8
  %22 = alloca ptr, align 8
  store ptr %0, ptr %14, align 8
  store ptr %1, ptr %15, align 8
  store ptr %2, ptr %16, align 8
  store i32 %3, ptr %17, align 4
  %23 = load ptr, ptr %16, align 8
  %24 = getelementptr inbounds %struct.Expr_, ptr %23, i32 0, i32 3
  %25 = getelementptr inbounds %struct.ExprCall, ptr %24, i32 0, i32 3
  %26 = load ptr, ptr %25, align 8
  store ptr %26, ptr %18, align 8
  %27 = load ptr, ptr %18, align 8
  store ptr %27, ptr %6, align 8
  %28 = load ptr, ptr %6, align 8
  %29 = icmp ne ptr %28, null
  br i1 %29, label %31, label %30

30:                                               ; preds = %4
  store i32 0, ptr %5, align 4
  br label %36

31:                                               ; preds = %4
  %32 = load ptr, ptr %6, align 8
  store ptr %32, ptr %7, align 8
  %33 = load ptr, ptr %7, align 8
  %34 = getelementptr inbounds %struct.VHeader_, ptr %33, i64 -1
  %35 = load i32, ptr %34, align 4
  store i32 %35, ptr %5, align 4
  br label %36

36:                                               ; preds = %31, %30
  %37 = load i32, ptr %5, align 4
  store i32 %37, ptr %19, align 4
  %38 = load ptr, ptr %14, align 8
  %39 = load ptr, ptr %18, align 8
  %40 = getelementptr inbounds [4 x ptr], ptr %20, i64 0, i64 0
  %41 = load i32, ptr %19, align 4
  store ptr %38, ptr %8, align 8
  store ptr %39, ptr %9, align 8
  store ptr %40, ptr %10, align 8
  store i32 %41, ptr %11, align 4
  store i32 0, ptr %13, align 4
  br label %42

42:                                               ; preds = %46, %36
  %43 = load i32, ptr %13, align 4
  %44 = load i32, ptr %11, align 4
  %45 = icmp ult i32 %43, %44
  br i1 %45, label %46, label %62

46:                                               ; preds = %42
  %47 = load ptr, ptr %8, align 8
  %48 = load ptr, ptr %9, align 8
  %49 = load i32, ptr %13, align 4
  %50 = zext i32 %49 to i64
  %51 = getelementptr inbounds ptr, ptr %48, i64 %50
  %52 = load ptr, ptr %51, align 8
  call void @llvm_emit_expr(ptr noundef %47, ptr noundef %12, ptr noundef %52) #6
  %53 = load ptr, ptr %8, align 8
  call void @llvm_value_rvalue(ptr noundef %53, ptr noundef %12) #6
  %54 = getelementptr inbounds %struct.BEValue, ptr %12, i32 0, i32 3
  %55 = load ptr, ptr %54, align 8
  %56 = load ptr, ptr %10, align 8
  %57 = load i32, ptr %13, align 4
  %58 = zext i32 %57 to i64
  %59 = getelementptr inbounds ptr, ptr %56, i64 %58
  store ptr %55, ptr %59, align 8
  %60 = load i32, ptr %13, align 4
  %61 = add i32 %60, 1
  store i32 %61, ptr %13, align 4
  br label %42, !llvm.loop !14

62:                                               ; preds = %42
  %63 = getelementptr inbounds [4 x ptr], ptr %20, i64 0, i64 0
  %64 = load ptr, ptr %63, align 16
  %65 = call ptr @LLVMTypeOf(ptr noundef %64)
  store ptr %65, ptr %21, align 8
  %66 = load ptr, ptr %14, align 8
  %67 = load i32, ptr %17, align 4
  %68 = getelementptr inbounds [4 x ptr], ptr %20, i64 0, i64 0
  %69 = load i32, ptr %19, align 4
  %70 = call ptr @llvm_emit_call_intrinsic(ptr noundef %66, i32 noundef %67, ptr noundef %21, i32 noundef 1, ptr noundef %68, i32 noundef %69)
  store ptr %70, ptr %22, align 8
  %71 = load ptr, ptr %15, align 8
  %72 = load ptr, ptr %22, align 8
  %73 = load ptr, ptr %16, align 8
  %74 = getelementptr inbounds %struct.Expr_, ptr %73, i32 0, i32 0
  %75 = load ptr, ptr %74, align 8
  call void @llvm_value_set(ptr noundef %71, ptr noundef %72, ptr noundef %75)
  ret void
}