; Function Attrs: nounwind uwtable
define dso_local void @llvm_emit_simple_builtin(ptr noundef %0, ptr noundef %1, ptr nocapture noundef readonly %2, i32 noundef %3) local_unnamed_addr #0 {
.lr.ph:
  %4 = alloca %struct.BEValue, align 8
  %5 = alloca [4 x ptr], align 16
  %6 = alloca ptr, align 8
  %7 = getelementptr inbounds i8, ptr %2, i64 40
  %8 = load ptr, ptr %7, align 8, !nonnull !9, !noundef !9
  %9 = getelementptr inbounds i8, ptr %8, i64 -8
  %10 = load i32, ptr %9, align 4
  %.not26 = icmp ne i32 %10, 0
  tail call void @llvm.assume(i1 %.not26)
  %11 = getelementptr inbounds i8, ptr %4, i64 16
  %wide.trip.count = zext i32 %10 to i64
  br label %12

12:                                               ; preds = %.lr.ph, %12
  %indvars.iv = phi i64 [ 0, %.lr.ph ], [ %indvars.iv.next, %12 ]
  %13 = getelementptr inbounds ptr, ptr %8, i64 %indvars.iv
  %14 = load ptr, ptr %13, align 8
  call void @llvm_emit_expr(ptr noundef %0, ptr noundef nonnull %4, ptr noundef %14) #8
  call void @llvm_value_rvalue(ptr noundef %0, ptr noundef nonnull %4) #8
  %15 = load ptr, ptr %11, align 8
  %16 = getelementptr inbounds ptr, ptr %5, i64 %indvars.iv
  store ptr %15, ptr %16, align 8
  %indvars.iv.next = add nuw nsw i64 %indvars.iv, 1
  %exitcond.not = icmp eq i64 %indvars.iv.next, %wide.trip.count
  br i1 %exitcond.not, label %._crit_edge.loopexit, label %12, !llvm.loop !10

._crit_edge.loopexit:                             ; preds = %12
  %.pre = load ptr, ptr %5, align 16
  %17 = call ptr @LLVMTypeOf(ptr noundef %.pre) #8
  store ptr %17, ptr %6, align 8
  %18 = call ptr @llvm_emit_call_intrinsic(ptr noundef %0, i32 noundef %3, ptr noundef nonnull %6, i32 noundef 1, ptr noundef nonnull %5, i32 noundef %10) #8
  %19 = load ptr, ptr %2, align 8
  call void @llvm_value_set(ptr noundef %1, ptr noundef %18, ptr noundef %19) #8
  ret void
}